; Function Attrs: nounwind uwtable
define dso_local void @slurm_print_job_step_info_msg(ptr noundef captures(none) %0, ptr noundef %1, i32 noundef %2) local_unnamed_addr #0 {
  %4 = alloca ptr, align 8
  %5 = alloca [256 x i8], align 16
  %6 = getelementptr inbounds nuw i8, ptr %1, i64 16
  %7 = load ptr, ptr %6, align 8
  call void @llvm.lifetime.start.p0(i64 256, ptr nonnull %5) #11
  call void @slurm_make_time_str(ptr noundef %1, ptr noundef nonnull %5, i32 noundef 256) #11
  %8 = getelementptr inbounds nuw i8, ptr %1, i64 8
  %9 = load i32, ptr %8, align 8
  %10 = call i32 (ptr, ptr, ...) @fprintf(ptr noundef %0, ptr noundef nonnull @.str, ptr noundef nonnull %5, i32 noundef %9) #11
  %11 = load i32, ptr %8, align 8
  %.not = icmp eq i32 %11, 0
  br i1 %.not, label %._crit_edge, label %.lr.ph

.lr.ph:                                           ; preds = %3, %.lr.ph
  %indvars.iv = phi i64 [ %indvars.iv.next, %.lr.ph ], [ 0, %3 ]
  %12 = getelementptr inbounds nuw %struct.job_step_info_t, ptr %7, i64 %indvars.iv
  call void @llvm.lifetime.start.p0(i64 8, ptr nonnull %4) #11
  %13 = call ptr @slurm_sprint_job_step_info(ptr noundef %12, i32 noundef %2)
  store ptr %13, ptr %4, align 8
  %fputs.i = call i32 @fputs(ptr %13, ptr %0)
  call void @slurm_xfree(ptr noundef nonnull %4) #11
  call void @llvm.lifetime.end.p0(i64 8, ptr nonnull %4) #11
  %indvars.iv.next = add nuw nsw i64 %indvars.iv, 1
  %14 = load i32, ptr %8, align 8
  %15 = zext i32 %14 to i64
  %16 = icmp samesign ult i64 %indvars.iv.next, %15
  br i1 %16, label %.lr.ph, label %._crit_edge, !llvm.loop !8

._crit_edge:                                      ; preds = %.lr.ph, %3
  call void @llvm.lifetime.end.p0(i64 256, ptr nonnull %5) #11
  ret void
}